target datalayout = "e-m:e-p270:32:32-p271:32:32-p272:64:64-i64:64-i128:128-f80:128-n8:16:32:64-S128"
target triple = "x86_64-pc-linux-gnu"

; Function Attrs: alwaysinline nounwind willreturn memory(none) uwtable
define internal zeroext i8 @av_clip_uint8_c(i32 noundef %0) #6 {
  %2 = alloca i8, align 1
  %3 = alloca i32, align 4
  store i32 %0, ptr %3, align 4, !tbaa !30
  %4 = load i32, ptr %3, align 4, !tbaa !30
  %5 = and i32 %4, -256
  %6 = icmp ne i32 %5, 0
  br i1 %6, label %7, label %12

7:                                                ; preds = %1
  %8 = load i32, ptr %3, align 4, !tbaa !30
  %9 = xor i32 %8, -1
  %10 = ashr i32 %9, 31
  %11 = trunc i32 %10 to i8
  store i8 %11, ptr %2, align 1
  br label %15

12:                                               ; preds = %1
  %13 = load i32, ptr %3, align 4, !tbaa !30
  %14 = trunc i32 %13 to i8
  store i8 %14, ptr %2, align 1
  br label %15

15:                                               ; preds = %12, %7
  %16 = load i8, ptr %2, align 1
  ret i8 %16
}

; Function Attrs: nounwind uwtable
define internal void @yuv2ya8_2_c(ptr noundef %0, ptr noundef %1, ptr noundef %2, ptr noundef %3, ptr noundef %4, ptr noundef %5, i32 noundef %6, i32 noundef %7, i32 noundef %8, i32 noundef %9) #4 {
  %11 = alloca ptr, align 8
  %12 = alloca ptr, align 8
  %13 = alloca ptr, align 8
  %14 = alloca ptr, align 8
  %15 = alloca ptr, align 8
  %16 = alloca ptr, align 8
  %17 = alloca i32, align 4
  %18 = alloca i32, align 4
  %19 = alloca i32, align 4
  %20 = alloca i32, align 4
  %21 = alloca i32, align 4
  %22 = alloca ptr, align 8
  %23 = alloca ptr, align 8
  %24 = alloca ptr, align 8
  %25 = alloca ptr, align 8
  %26 = alloca i32, align 4
  %27 = alloca i32, align 4
  %28 = alloca i32, align 4
  %29 = alloca i32, align 4
  store ptr %0, ptr %11, align 8, !tbaa !4
  store ptr %1, ptr %12, align 8, !tbaa !47
  store ptr %2, ptr %13, align 8, !tbaa !47
  store ptr %3, ptr %14, align 8, !tbaa !47
  store ptr %4, ptr %15, align 8, !tbaa !47
  store ptr %5, ptr %16, align 8, !tbaa !46
  store i32 %6, ptr %17, align 4, !tbaa !30
  store i32 %7, ptr %18, align 4, !tbaa !30
  store i32 %8, ptr %19, align 4, !tbaa !30
  store i32 %9, ptr %20, align 4, !tbaa !30
  call void @llvm.lifetime.start.p0(i64 4, ptr %21) #8
  %30 = load ptr, ptr %15, align 8, !tbaa !47
  %31 = icmp ne ptr %30, null
  br i1 %31, label %32, label %42

32:                                               ; preds = %10
  %33 = load ptr, ptr %15, align 8, !tbaa !47
  %34 = getelementptr inbounds ptr, ptr %33, i64 0
  %35 = load ptr, ptr %34, align 8, !tbaa !45
  %36 = icmp ne ptr %35, null
  br i1 %36, label %37, label %42

37:                                               ; preds = %32
  %38 = load ptr, ptr %15, align 8, !tbaa !47
  %39 = getelementptr inbounds ptr, ptr %38, i64 1
  %40 = load ptr, ptr %39, align 8, !tbaa !45
  %41 = icmp ne ptr %40, null
  br label %42

42:                                               ; preds = %37, %32, %10
  %43 = phi i1 [ false, %32 ], [ false, %10 ], [ %41, %37 ]
  %44 = zext i1 %43 to i32
  store i32 %44, ptr %21, align 4, !tbaa !30
  call void @llvm.lifetime.start.p0(i64 8, ptr %22) #8
  %45 = load ptr, ptr %12, align 8, !tbaa !47
  %46 = getelementptr inbounds ptr, ptr %45, i64 0
  %47 = load ptr, ptr %46, align 8, !tbaa !45
  store ptr %47, ptr %22, align 8, !tbaa !45
  call void @llvm.lifetime.start.p0(i64 8, ptr %23) #8
  %48 = load ptr, ptr %12, align 8, !tbaa !47
  %49 = getelementptr inbounds ptr, ptr %48, i64 1
  %50 = load ptr, ptr %49, align 8, !tbaa !45
  store ptr %50, ptr %23, align 8, !tbaa !45
  call void @llvm.lifetime.start.p0(i64 8, ptr %24) #8
  %51 = load i32, ptr %21, align 4, !tbaa !30
  %52 = icmp ne i32 %51, 0
  br i1 %52, label %53, label %57

53:                                               ; preds = %42
  %54 = load ptr, ptr %15, align 8, !tbaa !47
  %55 = getelementptr inbounds ptr, ptr %54, i64 0
  %56 = load ptr, ptr %55, align 8, !tbaa !45
  br label %58

57:                                               ; preds = %42
  br label %58

58:                                               ; preds = %57, %53
  %59 = phi ptr [ %56, %53 ], [ null, %57 ]
  store ptr %59, ptr %24, align 8, !tbaa !45
  call void @llvm.lifetime.start.p0(i64 8, ptr %25) #8
  %60 = load i32, ptr %21, align 4, !tbaa !30
  %61 = icmp ne i32 %60, 0
  br i1 %61, label %62, label %66

62:                                               ; preds = %58
  %63 = load ptr, ptr %15, align 8, !tbaa !47
  %64 = getelementptr inbounds ptr, ptr %63, i64 1
  %65 = load ptr, ptr %64, align 8, !tbaa !45
  br label %67

66:                                               ; preds = %58
  br label %67

67:                                               ; preds = %66, %62
  %68 = phi ptr [ %65, %62 ], [ null, %66 ]
  store ptr %68, ptr %25, align 8, !tbaa !45
  call void @llvm.lifetime.start.p0(i64 4, ptr %26) #8
  %69 = load i32, ptr %18, align 4, !tbaa !30
  %70 = sub nsw i32 4096, %69
  store i32 %70, ptr %26, align 4, !tbaa !30
  call void @llvm.lifetime.start.p0(i64 4, ptr %27) #8
  store i32 0, ptr %27, align 4, !tbaa !30
  br label %71

71:                                               ; preds = %143, %67
  %72 = load i32, ptr %27, align 4, !tbaa !30
  %73 = load i32, ptr %17, align 4, !tbaa !30
  %74 = icmp slt i32 %72, %73
  br i1 %74, label %75, label %146

75:                                               ; preds = %71
  call void @llvm.lifetime.start.p0(i64 4, ptr %28) #8
  %76 = load ptr, ptr %22, align 8, !tbaa !45
  %77 = load i32, ptr %27, align 4, !tbaa !30
  %78 = sext i32 %77 to i64
  %79 = getelementptr inbounds i16, ptr %76, i64 %78
  %80 = load i16, ptr %79, align 2, !tbaa !49
  %81 = sext i16 %80 to i32
  %82 = load i32, ptr %26, align 4, !tbaa !30
  %83 = mul nsw i32 %81, %82
  %84 = load ptr, ptr %23, align 8, !tbaa !45
  %85 = load i32, ptr %27, align 4, !tbaa !30
  %86 = sext i32 %85 to i64
  %87 = getelementptr inbounds i16, ptr %84, i64 %86
  %88 = load i16, ptr %87, align 2, !tbaa !49
  %89 = sext i16 %88 to i32
  %90 = load i32, ptr %18, align 4, !tbaa !30
  %91 = mul nsw i32 %89, %90
  %92 = add nsw i32 %83, %91
  %93 = ashr i32 %92, 19
  store i32 %93, ptr %28, align 4, !tbaa !30
  call void @llvm.lifetime.start.p0(i64 4, ptr %29) #8
  %94 = load i32, ptr %28, align 4, !tbaa !30
  %95 = call zeroext i8 @av_clip_uint8_c(i32 noundef %94) #10
  %96 = zext i8 %95 to i32
  store i32 %96, ptr %28, align 4, !tbaa !30
  %97 = load i32, ptr %21, align 4, !tbaa !30
  %98 = icmp ne i32 %97, 0
  br i1 %98, label %99, label %121

99:                                               ; preds = %75
  %100 = load ptr, ptr %24, align 8, !tbaa !45
  %101 = load i32, ptr %27, align 4, !tbaa !30
  %102 = sext i32 %101 to i64
  %103 = getelementptr inbounds i16, ptr %100, i64 %102
  %104 = load i16, ptr %103, align 2, !tbaa !49
  %105 = sext i16 %104 to i32
  %106 = load i32, ptr %26, align 4, !tbaa !30
  %107 = mul nsw i32 %105, %106
  %108 = load ptr, ptr %25, align 8, !tbaa !45
  %109 = load i32, ptr %27, align 4, !tbaa !30
  %110 = sext i32 %109 to i64
  %111 = getelementptr inbounds i16, ptr %108, i64 %110
  %112 = load i16, ptr %111, align 2, !tbaa !49
  %113 = sext i16 %112 to i32
  %114 = load i32, ptr %18, align 4, !tbaa !30
  %115 = mul nsw i32 %113, %114
  %116 = add nsw i32 %107, %115
  %117 = ashr i32 %116, 19
  store i32 %117, ptr %29, align 4, !tbaa !30
  %118 = load i32, ptr %29, align 4, !tbaa !30
  %119 = call zeroext i8 @av_clip_uint8_c(i32 noundef %118) #10
  %120 = zext i8 %119 to i32
  store i32 %120, ptr %29, align 4, !tbaa !30
  br label %121

121:                                              ; preds = %99, %75
  %122 = load i32, ptr %28, align 4, !tbaa !30
  %123 = trunc i32 %122 to i8
  %124 = load ptr, ptr %16, align 8, !tbaa !46
  %125 = load i32, ptr %27, align 4, !tbaa !30
  %126 = mul nsw i32 %125, 2
  %127 = sext i32 %126 to i64
  %128 = getelementptr inbounds i8, ptr %124, i64 %127
  store i8 %123, ptr %128, align 1, !tbaa !51
  %129 = load i32, ptr %21, align 4, !tbaa !30
  %130 = icmp ne i32 %129, 0
  br i1 %130, label %131, label %133

131:                                              ; preds = %121
  %132 = load i32, ptr %29, align 4, !tbaa !30
  br label %134

133:                                              ; preds = %121
  br label %134

134:                                              ; preds = %133, %131
  %135 = phi i32 [ %132, %131 ], [ 255, %133 ]
  %136 = trunc i32 %135 to i8
  %137 = load ptr, ptr %16, align 8, !tbaa !46
  %138 = load i32, ptr %27, align 4, !tbaa !30
  %139 = mul nsw i32 %138, 2
  %140 = add nsw i32 %139, 1
  %141 = sext i32 %140 to i64
  %142 = getelementptr inbounds i8, ptr %137, i64 %141
  store i8 %136, ptr %142, align 1, !tbaa !51
  call void @llvm.lifetime.end.p0(i64 4, ptr %29) #8
  call void @llvm.lifetime.end.p0(i64 4, ptr %28) #8
  br label %143

143:                                              ; preds = %134
  %144 = load i32, ptr %27, align 4, !tbaa !30
  %145 = add nsw i32 %144, 1
  store i32 %145, ptr %27, align 4, !tbaa !30
  br label %71, !llvm.loop !93

146:                                              ; preds = %71
  call void @llvm.lifetime.end.p0(i64 4, ptr %27) #8
  call void @llvm.lifetime.end.p0(i64 4, ptr %26) #8
  call void @llvm.lifetime.end.p0(i64 8, ptr %25) #8
  call void @llvm.lifetime.end.p0(i64 8, ptr %24) #8
  call void @llvm.lifetime.end.p0(i64 8, ptr %23) #8
  call void @llvm.lifetime.end.p0(i64 8, ptr %22) #8
  call void @llvm.lifetime.end.p0(i64 4, ptr %21) #8
  ret void
}