; Function Attrs: nofree norecurse nosync nounwind memory(read, argmem: readwrite, inaccessiblemem: none) uwtable
define internal void @yuv2ya8_2_c(ptr readnone captures(none) %0, ptr noundef readonly captures(none) %1, ptr readnone captures(none) %2, ptr readnone captures(none) %3, ptr noundef readonly captures(address_is_null) %4, ptr noundef writeonly captures(none) %5, i32 noundef %6, i32 noundef %7, i32 %8, i32 %9) #3 {
  %.not = icmp eq ptr %4, null
  br i1 %.not, label %.thread, label %11

11:                                               ; preds = %10
  %12 = load ptr, ptr %4, align 8, !tbaa !43
  %.not36 = icmp eq ptr %12, null
  br i1 %.not36, label %.thread, label %16

.thread:                                          ; preds = %11, %10
  %13 = load ptr, ptr %1, align 8, !tbaa !43
  %14 = getelementptr inbounds nuw i8, ptr %1, i64 8
  %15 = load ptr, ptr %14, align 8, !tbaa !43
  br label %.thread43

16:                                               ; preds = %11
  %17 = getelementptr inbounds nuw i8, ptr %4, i64 8
  %18 = load ptr, ptr %17, align 8, !tbaa !43
  %.not44 = icmp eq ptr %18, null
  %19 = load ptr, ptr %1, align 8, !tbaa !43
  %20 = getelementptr inbounds nuw i8, ptr %1, i64 8
  %21 = load ptr, ptr %20, align 8, !tbaa !43
  br i1 %.not44, label %.thread43, label %.thread43.thread

.thread43:                                        ; preds = %.thread, %16
  %22 = phi ptr [ %19, %16 ], [ %13, %.thread ]
  %23 = phi ptr [ %21, %16 ], [ %15, %.thread ]
  %24 = sub nsw i32 4096, %7
  %25 = icmp sgt i32 %6, 0
  br i1 %25, label %.lr.ph.split.preheader, label %._crit_edge

.thread43.thread:                                 ; preds = %16
  %26 = sub nsw i32 4096, %7
  %27 = icmp sgt i32 %6, 0
  br i1 %27, label %.lr.ph.split.us.preheader, label %._crit_edge

.lr.ph.split.preheader:                           ; preds = %.thread43
  %wide.trip.count = zext nneg i32 %6 to i64
  br label %.lr.ph.split

.lr.ph.split.us.preheader:                        ; preds = %.thread43.thread
  %wide.trip.count51 = zext nneg i32 %6 to i64
  br label %.lr.ph.split.us

.lr.ph.split.us:                                  ; preds = %.lr.ph.split.us.preheader, %.lr.ph.split.us
  %indvars.iv48 = phi i64 [ 0, %.lr.ph.split.us.preheader ], [ %indvars.iv.next49, %.lr.ph.split.us ]
  %28 = getelementptr inbounds nuw i16, ptr %19, i64 %indvars.iv48
  %29 = load i16, ptr %28, align 2, !tbaa !39
  %30 = sext i16 %29 to i32
  %31 = mul nsw i32 %26, %30
  %32 = getelementptr inbounds nuw i16, ptr %21, i64 %indvars.iv48
  %33 = load i16, ptr %32, align 2, !tbaa !39
  %34 = sext i16 %33 to i32
  %35 = mul nsw i32 %7, %34
  %36 = add nsw i32 %35, %31
  %37 = ashr i32 %36, 19
  %.not.i.us = icmp ult i32 %37, 256
  %isnotneg.i.us = icmp sgt i32 %37, -1
  %38 = sext i1 %isnotneg.i.us to i8
  %39 = trunc nuw i32 %37 to i8
  %.0.i.us = select i1 %.not.i.us, i8 %39, i8 %38
  %40 = getelementptr inbounds nuw i16, ptr %12, i64 %indvars.iv48
  %41 = load i16, ptr %40, align 2, !tbaa !39
  %42 = sext i16 %41 to i32
  %43 = mul nsw i32 %26, %42
  %44 = getelementptr inbounds nuw i16, ptr %18, i64 %indvars.iv48
  %45 = load i16, ptr %44, align 2, !tbaa !39
  %46 = sext i16 %45 to i32
  %47 = mul nsw i32 %7, %46
  %48 = add nsw i32 %47, %43
  %49 = ashr i32 %48, 19
  %.not.i37.us = icmp ult i32 %49, 256
  %isnotneg.i38.us = icmp sgt i32 %49, -1
  %50 = sext i1 %isnotneg.i38.us to i8
  %51 = trunc nuw i32 %49 to i8
  %.0.i39.us = select i1 %.not.i37.us, i8 %51, i8 %50
  %52 = shl nuw nsw i64 %indvars.iv48, 1
  %53 = getelementptr inbounds nuw i8, ptr %5, i64 %52
  store i8 %.0.i.us, ptr %53, align 1, !tbaa !41
  %54 = getelementptr inbounds nuw i8, ptr %53, i64 1
  store i8 %.0.i39.us, ptr %54, align 1, !tbaa !41
  %indvars.iv.next49 = add nuw nsw i64 %indvars.iv48, 1
  %exitcond52.not = icmp eq i64 %indvars.iv.next49, %wide.trip.count51
  br i1 %exitcond52.not, label %._crit_edge, label %.lr.ph.split.us, !llvm.loop !145

.lr.ph.split:                                     ; preds = %.lr.ph.split.preheader, %.lr.ph.split
  %indvars.iv = phi i64 [ 0, %.lr.ph.split.preheader ], [ %indvars.iv.next, %.lr.ph.split ]
  %55 = getelementptr inbounds nuw i16, ptr %22, i64 %indvars.iv
  %56 = load i16, ptr %55, align 2, !tbaa !39
  %57 = sext i16 %56 to i32
  %58 = mul nsw i32 %24, %57
  %59 = getelementptr inbounds nuw i16, ptr %23, i64 %indvars.iv
  %60 = load i16, ptr %59, align 2, !tbaa !39
  %61 = sext i16 %60 to i32
  %62 = mul nsw i32 %7, %61
  %63 = add nsw i32 %62, %58
  %64 = ashr i32 %63, 19
  %.not.i = icmp ult i32 %64, 256
  %isnotneg.i = icmp sgt i32 %64, -1
  %65 = sext i1 %isnotneg.i to i8
  %66 = trunc nuw i32 %64 to i8
  %.0.i = select i1 %.not.i, i8 %66, i8 %65
  %67 = shl nuw nsw i64 %indvars.iv, 1
  %68 = getelementptr inbounds nuw i8, ptr %5, i64 %67
  store i8 %.0.i, ptr %68, align 1, !tbaa !41
  %69 = getelementptr inbounds nuw i8, ptr %68, i64 1
  store i8 -1, ptr %69, align 1, !tbaa !41
  %indvars.iv.next = add nuw nsw i64 %indvars.iv, 1
  %exitcond.not = icmp eq i64 %indvars.iv.next, %wide.trip.count
  br i1 %exitcond.not, label %._crit_edge, label %.lr.ph.split, !llvm.loop !145

._crit_edge:                                      ; preds = %.lr.ph.split.us, %.lr.ph.split, %.thread43.thread, %.thread43
  ret void
}